; Function Attrs: nounwind uwtable
define hidden ptr @_mi_os_alloc_aligned_at_offset(i64 noundef %0, i64 noundef %1, i64 noundef %2, i1 noundef zeroext %3, i1 noundef zeroext %4, ptr noundef captures(none) initializes((0, 24)) %5) local_unnamed_addr #1 {
  %7 = alloca i8, align 1
  tail call void @llvm.memset.p0.i64(ptr noundef nonnull align 8 dereferenceable(24) %5, i8 0, i64 24, i1 false)
  %8 = icmp ugt i64 %2, 33554432
  br i1 %8, label %55, label %9

9:                                                ; preds = %6
  %10 = icmp eq i64 %2, 0
  br i1 %10, label %11, label %13

11:                                               ; preds = %9
  %12 = tail call ptr @_mi_os_alloc_aligned(i64 noundef %0, i64 noundef %1, i1 noundef zeroext %3, i1 noundef zeroext %4, ptr noundef nonnull %5) #8
  br label %55

13:                                               ; preds = %9
  %14 = add i64 %1, -1
  %15 = tail call range(i64 0, 65) i64 @llvm.ctpop.i64(i64 %1)
  %16 = icmp samesign ult i64 %15, 2
  %17 = add i64 %14, %2
  br i1 %16, label %18, label %21

18:                                               ; preds = %13
  %19 = sub i64 0, %1
  %20 = and i64 %17, %19
  br label %_mi_align_up.exit

21:                                               ; preds = %13
  %22 = urem i64 %17, %1
  %23 = sub nuw i64 %17, %22
  br label %_mi_align_up.exit

_mi_align_up.exit:                                ; preds = %18, %21
  %.0.i = phi i64 [ %20, %18 ], [ %23, %21 ]
  %24 = sub i64 %.0.i, %2
  %25 = add i64 %24, %0
  %26 = tail call ptr @_mi_os_alloc_aligned(i64 noundef %25, i64 noundef %1, i1 noundef zeroext %3, i1 noundef zeroext %4, ptr noundef nonnull %5) #8
  %27 = icmp eq ptr %26, null
  br i1 %27, label %55, label %28

28:                                               ; preds = %_mi_align_up.exit
  %29 = getelementptr inbounds nuw i8, ptr %26, i64 %24
  %30 = load i64, ptr @mi_os_mem_config, align 8
  %31 = icmp ugt i64 %24, %30
  %or.cond = select i1 %3, i1 %31, i1 false
  br i1 %or.cond, label %32, label %55

32:                                               ; preds = %28
  call void @llvm.lifetime.start.p0(i64 1, ptr nonnull %7) #9
  tail call void @_mi_stat_decrease(ptr noundef nonnull getelementptr inbounds nuw (i8, ptr @_mi_stats_main, i64 96), i64 noundef %24) #7
  %33 = load i64, ptr @mi_os_mem_config, align 8, !tbaa !12
  %34 = ptrtoint ptr %26 to i64
  %35 = tail call range(i64 0, 65) i64 @llvm.ctpop.i64(i64 %33)
  %36 = icmp samesign ult i64 %35, 2
  %37 = add i64 %34, -1
  %38 = add i64 %37, %33
  %39 = ptrtoint ptr %29 to i64
  br i1 %36, label %40, label %44

40:                                               ; preds = %32
  %41 = sub i64 0, %33
  %42 = and i64 %38, %41
  %43 = and i64 %41, %39
  br label %mi_align_down_ptr.exit27.i.i.i.i

44:                                               ; preds = %32
  %45 = urem i64 %38, %33
  %46 = sub nuw i64 %38, %45
  %47 = urem i64 %39, %33
  %48 = sub nuw i64 %39, %47
  br label %mi_align_down_ptr.exit27.i.i.i.i

mi_align_down_ptr.exit27.i.i.i.i:                 ; preds = %44, %40
  %.in.i.i.i.i = phi i64 [ %42, %40 ], [ %46, %44 ]
  %.in30.i.i.i.i = phi i64 [ %43, %40 ], [ %48, %44 ]
  %49 = sub i64 %.in30.i.i.i.i, %.in.i.i.i.i
  %50 = icmp slt i64 %49, 1
  br i1 %50, label %_mi_os_decommit.exit, label %51

51:                                               ; preds = %mi_align_down_ptr.exit27.i.i.i.i
  %52 = inttoptr i64 %.in.i.i.i.i to ptr
  store i8 1, ptr %7, align 1, !tbaa !24
  %53 = call i32 @_mi_prim_decommit(ptr noundef %52, i64 noundef %49, ptr noundef nonnull %7) #7
  %.not.i.i = icmp eq i32 %53, 0
  br i1 %.not.i.i, label %_mi_os_decommit.exit, label %54

54:                                               ; preds = %51
  call void (ptr, ...) @_mi_warning_message(ptr noundef nonnull @.str.10, i32 noundef %53, i32 noundef %53, ptr noundef %52, i64 noundef %49) #7
  br label %_mi_os_decommit.exit

_mi_os_decommit.exit:                             ; preds = %mi_align_down_ptr.exit27.i.i.i.i, %51, %54
  call void @llvm.lifetime.end.p0(i64 1, ptr nonnull %7) #9
  br label %55

55:                                               ; preds = %_mi_align_up.exit, %_mi_os_decommit.exit, %28, %6, %11
  %.0 = phi ptr [ %12, %11 ], [ null, %6 ], [ null, %_mi_align_up.exit ], [ %29, %_mi_os_decommit.exit ], [ %29, %28 ]
  ret ptr %.0
}